target datalayout = "e-m:e-p270:32:32-p271:32:32-p272:64:64-i64:64-i128:128-f80:128-n8:16:32:64-S128"
target triple = "x86_64-pc-linux-gnu"

@.str.188 = private unnamed_addr constant [5 x i8] c"RETR\00", align 1
@.str.189 = private unnamed_addr constant [5 x i8] c"STOR\00", align 1
@.str.190 = private unnamed_addr constant [5 x i8] c"STOU\00", align 1
@.str.191 = private unnamed_addr constant [5 x i8] c"APPE\00", align 1
@.str.192 = private unnamed_addr constant [5 x i8] c"LIST\00", align 1
@.str.193 = private unnamed_addr constant [5 x i8] c"NLST\00", align 1
@.str.194 = private unnamed_addr constant [5 x i8] c"MLSD\00", align 1

; Function Attrs: nounwind null_pointer_is_valid sspstrong uwtable
define internal zeroext i1 @cmd_resp_is_data(ptr noundef %0) #6 {
  %2 = alloca ptr, align 8
  store ptr %0, ptr %2, align 8
  %3 = load ptr, ptr %2, align 8
  %4 = call i32 @strncmp(ptr noundef %3, ptr noundef @.str.188, i64 noundef 4) #18
  %5 = icmp eq i32 %4, 0
  br i1 %5, label %30, label %6

6:                                                ; preds = %1
  %7 = load ptr, ptr %2, align 8
  %8 = call i32 @strncmp(ptr noundef %7, ptr noundef @.str.189, i64 noundef 4) #18
  %9 = icmp eq i32 %8, 0
  br i1 %9, label %30, label %10

10:                                               ; preds = %6
  %11 = load ptr, ptr %2, align 8
  %12 = call i32 @strncmp(ptr noundef %11, ptr noundef @.str.190, i64 noundef 4) #18
  %13 = icmp eq i32 %12, 0
  br i1 %13, label %30, label %14

14:                                               ; preds = %10
  %15 = load ptr, ptr %2, align 8
  %16 = call i32 @strncmp(ptr noundef %15, ptr noundef @.str.191, i64 noundef 4) #18
  %17 = icmp eq i32 %16, 0
  br i1 %17, label %30, label %18

18:                                               ; preds = %14
  %19 = load ptr, ptr %2, align 8
  %20 = call i32 @strncmp(ptr noundef %19, ptr noundef @.str.192, i64 noundef 4) #18
  %21 = icmp eq i32 %20, 0
  br i1 %21, label %30, label %22

22:                                               ; preds = %18
  %23 = load ptr, ptr %2, align 8
  %24 = call i32 @strncmp(ptr noundef %23, ptr noundef @.str.193, i64 noundef 4) #18
  %25 = icmp eq i32 %24, 0
  br i1 %25, label %30, label %26

26:                                               ; preds = %22
  %27 = load ptr, ptr %2, align 8
  %28 = call i32 @strncmp(ptr noundef %27, ptr noundef @.str.194, i64 noundef 4) #18
  %29 = icmp eq i32 %28, 0
  br label %30

30:                                               ; preds = %26, %22, %18, %14, %10, %6, %1
  %31 = phi i1 [ true, %22 ], [ true, %18 ], [ true, %14 ], [ true, %10 ], [ true, %6 ], [ true, %1 ], [ %29, %26 ]
  ret i1 %31
}