; Function Attrs: mustprogress nofree nounwind null_pointer_is_valid sspstrong willreturn memory(argmem: read) uwtable
define internal fastcc zeroext i1 @cmd_resp_is_data(ptr noundef readonly captures(none) %0) unnamed_addr #4 {
  %2 = tail call i32 @strncmp(ptr noundef %0, ptr noundef nonnull dereferenceable(5) @.str.188, i64 noundef 4) #14
  %3 = icmp eq i32 %2, 0
  br i1 %3, label %22, label %4

4:                                                ; preds = %1
  %5 = tail call i32 @strncmp(ptr noundef %0, ptr noundef nonnull dereferenceable(5) @.str.189, i64 noundef 4) #14
  %6 = icmp eq i32 %5, 0
  br i1 %6, label %22, label %7

7:                                                ; preds = %4
  %8 = tail call i32 @strncmp(ptr noundef %0, ptr noundef nonnull dereferenceable(5) @.str.190, i64 noundef 4) #14
  %9 = icmp eq i32 %8, 0
  br i1 %9, label %22, label %10

10:                                               ; preds = %7
  %11 = tail call i32 @strncmp(ptr noundef %0, ptr noundef nonnull dereferenceable(5) @.str.191, i64 noundef 4) #14
  %12 = icmp eq i32 %11, 0
  br i1 %12, label %22, label %13

13:                                               ; preds = %10
  %14 = tail call i32 @strncmp(ptr noundef %0, ptr noundef nonnull dereferenceable(5) @.str.192, i64 noundef 4) #14
  %15 = icmp eq i32 %14, 0
  br i1 %15, label %22, label %16

16:                                               ; preds = %13
  %17 = tail call i32 @strncmp(ptr noundef %0, ptr noundef nonnull dereferenceable(5) @.str.193, i64 noundef 4) #14
  %18 = icmp eq i32 %17, 0
  br i1 %18, label %22, label %19

19:                                               ; preds = %16
  %20 = tail call i32 @strncmp(ptr noundef %0, ptr noundef nonnull dereferenceable(5) @.str.194, i64 noundef 4) #14
  %21 = icmp eq i32 %20, 0
  br label %22

22:                                               ; preds = %19, %16, %13, %10, %7, %4, %1
  %23 = phi i1 [ true, %16 ], [ true, %13 ], [ true, %10 ], [ true, %7 ], [ true, %4 ], [ true, %1 ], [ %21, %19 ]
  ret i1 %23
}